(dp0
S'buildDestination'
p1
S''
p2
sS'saveDestination'
p3
VC:\u005cUsers\u005cMatthew\u005cOneDrive\u005cDocuments\u005cLocal Attack 2.tws
p4
sS'metadata'
p5
(dp6
sS'target'
p7
S'sugarcane'
p8
sS'storyPanel'
p9
(dp10
S'widgets'
p11
(lp12
(dp13
S'selected'
p14
I00
sS'pos'
p15
(lp16
I10
aI11
asS'passage'
p17
(itiddlywiki
Tiddler
p18
(dp20
S'text'
p21
VWelcome to local attack 2! Plase play and complete the first game before playing this game. [[Start the game!|Start]]
p22
sS'title'
p23
VLocal Attack 2
p24
sS'modified'
p25
ctime
struct_time
p26
((I2015
I10
I8
I16
I29
I58
I3
I281
I1
tp27
(dp28
tp29
Rp30
sS'tags'
p31
(lp32
sS'created'
p33
g26
((I2015
I10
I8
I16
I16
I12
I3
I281
I1
tp34
(dp35
tp36
Rp37
sbsa(dp38
g14
I00
sg15
(lp39
I10
aI150
asg17
(itiddlywiki
Tiddler
p40
(dp41
g21
VLocal Attack 2
p42
sg23
VStoryTitle
p43
sg25
g26
((I2015
I10
I8
I16
I26
I37
I3
I281
I1
tp44
(dp45
tp46
Rp47
sg31
(lp48
sg33
g26
((I2015
I10
I8
I16
I16
I12
I3
I281
I1
tp49
(dp50
tp51
Rp52
sbsa(dp53
g14
I00
sg15
(lp54
I10
aI290
asg17
(itiddlywiki
Tiddler
p55
(dp56
g21
VMattieMonsterDeveloper
p57
sg23
VStoryAuthor
p58
sg25
g26
((I2015
I10
I8
I16
I26
I46
I3
I281
I1
tp59
(dp60
tp61
Rp62
sg31
(lp63
sg33
g26
((I2015
I10
I8
I16
I16
I12
I3
I281
I1
tp64
(dp65
tp66
Rp67
sbsa(dp68
g14
I00
sg15
(lp69
I175
aI16
asg17
(itiddlywiki
Tiddler
p70
(dp71
g21
V//BANG! BANG! BANG!// "Mind the gunshots!" said one of the drivers of the police car.
p72
sg23
VStart
p73
sg25
g26
((I2015
I10
I8
I16
I29
I36
I3
I281
I1
tp74
(dp75
tp76
Rp77
sg31
(lp78
sg33
g26
((I2015
I10
I8
I16
I26
I53
I3
I281
I1
tp79
(dp80
tp81
Rp82
sbsasS'scale'
p83
I1
sS'snapping'
p84
I00
ss.